target datalayout = "e-m:e-p270:32:32-p271:32:32-p272:64:64-i64:64-i128:128-f80:128-n8:16:32:64-S128"
target triple = "x86_64-unknown-linux-gnu"

%"struct.std::_Vector_base" = type { %"struct.std::_Vector_base<std::__cxx11::basic_string<char>, std::allocator<std::__cxx11::basic_string<char>>>::_Vector_impl" }
%"struct.std::_Vector_base<std::__cxx11::basic_string<char>, std::allocator<std::__cxx11::basic_string<char>>>::_Vector_impl" = type { %"struct.std::_Vector_base<std::__cxx11::basic_string<char>, std::allocator<std::__cxx11::basic_string<char>>>::_Vector_impl_data" }
%"struct.std::_Vector_base<std::__cxx11::basic_string<char>, std::allocator<std::__cxx11::basic_string<char>>>::_Vector_impl_data" = type { ptr, ptr, ptr }
%"class.Assimp::CIOSystemWrapper" = type { %"class.Assimp::IOSystem", ptr }
%"class.Assimp::IOSystem" = type { ptr, %"class.std::vector" }
%"class.std::vector" = type { %"struct.std::_Vector_base" }
%struct.aiFileIO = type { ptr, ptr, ptr }

@.str = private unnamed_addr constant [3 x i8] c"rb\00", align 1

; Function Attrs: mustprogress uwtable
define hidden noundef zeroext i1 @_ZNK6Assimp16CIOSystemWrapper6ExistsEPKc(ptr noundef nonnull align 8 dereferenceable(40) %this, ptr noundef %pFile) unnamed_addr #4 align 2 {
entry:
  %retval = alloca i1, align 1
  %this.addr = alloca ptr, align 8
  %pFile.addr = alloca ptr, align 8
  %p = alloca ptr, align 8
  store ptr %this, ptr %this.addr, align 8
  store ptr %pFile, ptr %pFile.addr, align 8
  %this1 = load ptr, ptr %this.addr, align 8
  %mFileSystem = getelementptr inbounds %"class.Assimp::CIOSystemWrapper", ptr %this1, i32 0, i32 1
  %0 = load ptr, ptr %mFileSystem, align 8
  %OpenProc = getelementptr inbounds %struct.aiFileIO, ptr %0, i32 0, i32 0
  %1 = load ptr, ptr %OpenProc, align 8
  %mFileSystem2 = getelementptr inbounds %"class.Assimp::CIOSystemWrapper", ptr %this1, i32 0, i32 1
  %2 = load ptr, ptr %mFileSystem2, align 8
  %3 = load ptr, ptr %pFile.addr, align 8
  %call = call noundef ptr %1(ptr noundef %2, ptr noundef %3, ptr noundef @.str)
  store ptr %call, ptr %p, align 8
  %4 = load ptr, ptr %p, align 8
  %tobool = icmp ne ptr %4, null
  br i1 %tobool, label %if.then, label %if.end

if.then:                                          ; preds = %entry
  %mFileSystem3 = getelementptr inbounds %"class.Assimp::CIOSystemWrapper", ptr %this1, i32 0, i32 1
  %5 = load ptr, ptr %mFileSystem3, align 8
  %CloseProc = getelementptr inbounds %struct.aiFileIO, ptr %5, i32 0, i32 1
  %6 = load ptr, ptr %CloseProc, align 8
  %mFileSystem4 = getelementptr inbounds %"class.Assimp::CIOSystemWrapper", ptr %this1, i32 0, i32 1
  %7 = load ptr, ptr %mFileSystem4, align 8
  %8 = load ptr, ptr %p, align 8
  call void %6(ptr noundef %7, ptr noundef %8)
  store i1 true, ptr %retval, align 1
  br label %return

if.end:                                           ; preds = %entry
  store i1 false, ptr %retval, align 1
  br label %return

return:                                           ; preds = %if.end, %if.then
  %9 = load i1, ptr %retval, align 1
  ret i1 %9
}