; Function Attrs: mustprogress uwtable
define hidden noundef zeroext i1 @_ZNK6Assimp16CIOSystemWrapper6ExistsEPKc(ptr nocapture noundef nonnull readonly align 8 dereferenceable(40) %this, ptr noundef %pFile) unnamed_addr #4 align 2 {
entry:
  %mFileSystem = getelementptr inbounds i8, ptr %this, i64 32
  %0 = load ptr, ptr %mFileSystem, align 8
  %1 = load ptr, ptr %0, align 8
  %call = tail call noundef ptr %1(ptr noundef nonnull %0, ptr noundef %pFile, ptr noundef nonnull @.str)
  %tobool.not = icmp ne ptr %call, null
  br i1 %tobool.not, label %if.then, label %return

if.then:                                          ; preds = %entry
  %2 = load ptr, ptr %mFileSystem, align 8
  %CloseProc = getelementptr inbounds i8, ptr %2, i64 8
  %3 = load ptr, ptr %CloseProc, align 8
  tail call void %3(ptr noundef %2, ptr noundef nonnull %call)
  br label %return

return:                                           ; preds = %entry, %if.then
  ret i1 %tobool.not
}